; Function Attrs: null_pointer_is_valid sspstrong uwtable
define internal fastcc i32 @dissect_kafka_array(ptr noundef %0, ptr noundef %1, ptr noundef %2, i32 noundef %3, i32 noundef range(i32 0, 2) %4, i16 noundef signext %5, ptr noundef readonly captures(none) %6, ptr noundef writeonly captures(address_is_null) %7) unnamed_addr #0 {
  %9 = alloca i64, align 8
  %.not = icmp eq i32 %4, 0
  br i1 %.not, label %41, label %10

10:                                               ; preds = %8
  call void @llvm.lifetime.start.p0(i64 8, ptr nonnull %9) #9
  %11 = call i32 @tvb_get_varint(ptr noundef %1, i32 noundef %3, i32 noundef 10, ptr noundef nonnull %9, i32 noundef 2)
  %12 = icmp eq i32 %11, 0
  br i1 %12, label %13, label %17

13:                                               ; preds = %10
  %14 = call ptr @proto_tree_get_parent(ptr noundef %0)
  %15 = call ptr @expert_add_info(ptr noundef %2, ptr noundef %14, ptr noundef nonnull @ei_kafka_bad_varint)
  %16 = call i32 @tvb_captured_length(ptr noundef %1)
  br label %dissect_kafka_compact_array.exit

17:                                               ; preds = %10
  %18 = load i64, ptr %9, align 8
  %19 = icmp sgt i64 %18, 134217727
  br i1 %19, label %20, label %24

20:                                               ; preds = %17
  %21 = call ptr @proto_tree_get_parent(ptr noundef %0)
  %22 = call ptr @expert_add_info(ptr noundef %2, ptr noundef %21, ptr noundef nonnull @ei_kafka_bad_array_length)
  %23 = add i32 %11, %3
  br label %dissect_kafka_compact_array.exit

24:                                               ; preds = %17
  %25 = add i32 %11, %3
  %26 = trunc i64 %18 to i32
  %27 = add i32 %26, -1
  %28 = call i32 @tvb_reported_length_remaining(ptr noundef %1, i32 noundef %25)
  %29 = icmp slt i32 %28, %27
  br i1 %29, label %.loopexit.sink.split.i.i, label %.preheader.i.i

.preheader.i.i:                                   ; preds = %24
  %30 = icmp sgt i32 %27, 0
  br i1 %30, label %.lr.ph.i.i, label %dissect_kafka_array_elements.exit.i

31:                                               ; preds = %.lr.ph.i.i
  %32 = add nuw nsw i32 %.02127.i.i, 1
  %exitcond.not.i.i = icmp eq i32 %32, %27
  br i1 %exitcond.not.i.i, label %dissect_kafka_array_elements.exit.i, label %.lr.ph.i.i, !llvm.loop !11

.lr.ph.i.i:                                       ; preds = %.preheader.i.i, %31
  %.02127.i.i = phi i32 [ %32, %31 ], [ 0, %.preheader.i.i ]
  %.02226.i.i = phi i32 [ %33, %31 ], [ %25, %.preheader.i.i ]
  %33 = call i32 %6(ptr noundef %1, ptr noundef %2, ptr noundef %0, i32 noundef %.02226.i.i, i16 noundef signext %5)
  %34 = icmp eq i32 %33, %.02226.i.i
  br i1 %34, label %.loopexit.sink.split.i.i, label %31

.loopexit.sink.split.i.i:                         ; preds = %.lr.ph.i.i, %24
  %ei_kafka_zero_field_length.sink.i.i = phi ptr [ @ei_kafka_bad_array_length, %24 ], [ @ei_kafka_zero_field_length, %.lr.ph.i.i ]
  %.0.ph.i.i = phi i32 [ %25, %24 ], [ %.02226.i.i, %.lr.ph.i.i ]
  %35 = call ptr @proto_tree_get_parent(ptr noundef %0)
  %36 = call ptr @expert_add_info(ptr noundef %2, ptr noundef %35, ptr noundef nonnull %ei_kafka_zero_field_length.sink.i.i)
  br label %dissect_kafka_array_elements.exit.i

dissect_kafka_array_elements.exit.i:              ; preds = %31, %.loopexit.sink.split.i.i, %.preheader.i.i
  %.0.i.i = phi i32 [ %25, %.preheader.i.i ], [ %.0.ph.i.i, %.loopexit.sink.split.i.i ], [ %33, %31 ]
  %.not.i = icmp eq ptr %7, null
  br i1 %.not.i, label %dissect_kafka_compact_array.exit, label %37

37:                                               ; preds = %dissect_kafka_array_elements.exit.i
  %38 = load i64, ptr %9, align 8
  %39 = trunc i64 %38 to i32
  %40 = add i32 %39, -1
  store i32 %40, ptr %7, align 4
  br label %dissect_kafka_compact_array.exit

dissect_kafka_compact_array.exit:                 ; preds = %13, %20, %dissect_kafka_array_elements.exit.i, %37
  %.0.i = phi i32 [ %16, %13 ], [ %23, %20 ], [ %.0.i.i, %37 ], [ %.0.i.i, %dissect_kafka_array_elements.exit.i ]
  call void @llvm.lifetime.end.p0(i64 8, ptr nonnull %9) #9
  br label %dissect_kafka_regular_array.exit

41:                                               ; preds = %8
  %42 = tail call i32 @tvb_get_ntohl(ptr noundef %1, i32 noundef %3)
  %43 = add i32 %3, 4
  %44 = icmp slt i32 %42, -1
  br i1 %44, label %45, label %48

45:                                               ; preds = %41
  %46 = tail call ptr @proto_tree_get_parent(ptr noundef %0)
  %47 = tail call ptr @expert_add_info(ptr noundef %2, ptr noundef %46, ptr noundef nonnull @ei_kafka_bad_array_length)
  br label %dissect_kafka_regular_array.exit

48:                                               ; preds = %41
  %49 = tail call i32 @tvb_reported_length_remaining(ptr noundef %1, i32 noundef %43)
  %50 = icmp slt i32 %49, %42
  br i1 %50, label %.loopexit.sink.split.i.i24, label %.preheader.i.i15

.preheader.i.i15:                                 ; preds = %48
  %51 = icmp sgt i32 %42, 0
  br i1 %51, label %.lr.ph.i.i20, label %dissect_kafka_array_elements.exit.i16

52:                                               ; preds = %.lr.ph.i.i20
  %53 = add nuw nsw i32 %.02127.i.i21, 1
  %exitcond.not.i.i23 = icmp eq i32 %53, %42
  br i1 %exitcond.not.i.i23, label %dissect_kafka_array_elements.exit.i16, label %.lr.ph.i.i20, !llvm.loop !11

.lr.ph.i.i20:                                     ; preds = %.preheader.i.i15, %52
  %.02127.i.i21 = phi i32 [ %53, %52 ], [ 0, %.preheader.i.i15 ]
  %.02226.i.i22 = phi i32 [ %54, %52 ], [ %43, %.preheader.i.i15 ]
  %54 = tail call i32 %6(ptr noundef %1, ptr noundef %2, ptr noundef %0, i32 noundef %.02226.i.i22, i16 noundef signext %5)
  %55 = icmp eq i32 %54, %.02226.i.i22
  br i1 %55, label %.loopexit.sink.split.i.i24, label %52

.loopexit.sink.split.i.i24:                       ; preds = %.lr.ph.i.i20, %48
  %ei_kafka_zero_field_length.sink.i.i25 = phi ptr [ @ei_kafka_bad_array_length, %48 ], [ @ei_kafka_zero_field_length, %.lr.ph.i.i20 ]
  %.0.ph.i.i26 = phi i32 [ %43, %48 ], [ %.02226.i.i22, %.lr.ph.i.i20 ]
  %56 = tail call ptr @proto_tree_get_parent(ptr noundef %0)
  %57 = tail call ptr @expert_add_info(ptr noundef %2, ptr noundef %56, ptr noundef nonnull %ei_kafka_zero_field_length.sink.i.i25)
  br label %dissect_kafka_array_elements.exit.i16

dissect_kafka_array_elements.exit.i16:            ; preds = %52, %.loopexit.sink.split.i.i24, %.preheader.i.i15
  %.0.i.i17 = phi i32 [ %43, %.preheader.i.i15 ], [ %.0.ph.i.i26, %.loopexit.sink.split.i.i24 ], [ %54, %52 ]
  %.not.i18 = icmp eq ptr %7, null
  br i1 %.not.i18, label %dissect_kafka_regular_array.exit, label %58

58:                                               ; preds = %dissect_kafka_array_elements.exit.i16
  store i32 %42, ptr %7, align 4
  br label %dissect_kafka_regular_array.exit

dissect_kafka_regular_array.exit:                 ; preds = %58, %dissect_kafka_array_elements.exit.i16, %45, %dissect_kafka_compact_array.exit
  %.0 = phi i32 [ %.0.i, %dissect_kafka_compact_array.exit ], [ %43, %45 ], [ %.0.i.i17, %58 ], [ %.0.i.i17, %dissect_kafka_array_elements.exit.i16 ]
  ret i32 %.0
}